target datalayout = "e-m:e-p270:32:32-p271:32:32-p272:64:64-i64:64-i128:128-f80:128-n8:16:32:64-S128"
target triple = "x86_64-pc-linux-gnu"

%struct.TupleDescData = type { i32, i32, i32, i32, ptr, [0 x %struct.CompactAttribute] }
%struct.CompactAttribute = type { i32, i16, i8, i8, i8, i8, i8, i8, i8 }

@SPI_result = dso_local global i32 0, align 4

; Function Attrs: nounwind uwtable
define dso_local i64 @SPI_getbinval(ptr noundef %0, ptr noundef %1, i32 noundef %2, ptr noundef %3) #0 {
  %5 = alloca i64, align 8
  %6 = alloca ptr, align 8
  %7 = alloca ptr, align 8
  %8 = alloca i32, align 4
  %9 = alloca ptr, align 8
  store ptr %0, ptr %6, align 8
  store ptr %1, ptr %7, align 8
  store i32 %2, ptr %8, align 4
  store ptr %3, ptr %9, align 8
  store i32 0, ptr @SPI_result, align 4
  %10 = load i32, ptr %8, align 4
  %11 = load ptr, ptr %7, align 8
  %12 = getelementptr inbounds nuw %struct.TupleDescData, ptr %11, i32 0, i32 0
  %13 = load i32, ptr %12, align 8
  %14 = icmp sgt i32 %10, %13
  br i1 %14, label %21, label %15

15:                                               ; preds = %4
  %16 = load i32, ptr %8, align 4
  %17 = icmp eq i32 %16, 0
  br i1 %17, label %21, label %18

18:                                               ; preds = %15
  %19 = load i32, ptr %8, align 4
  %20 = icmp sle i32 %19, -7
  br i1 %20, label %21, label %23

21:                                               ; preds = %18, %15, %4
  store i32 -9, ptr @SPI_result, align 4
  %22 = load ptr, ptr %9, align 8
  store i8 1, ptr %22, align 1
  store i64 0, ptr %5, align 8
  br label %29

23:                                               ; preds = %18
  %24 = load ptr, ptr %6, align 8
  %25 = load i32, ptr %8, align 4
  %26 = load ptr, ptr %7, align 8
  %27 = load ptr, ptr %9, align 8
  %28 = call i64 @heap_getattr(ptr noundef %24, i32 noundef %25, ptr noundef %26, ptr noundef %27)
  store i64 %28, ptr %5, align 8
  br label %29

29:                                               ; preds = %23, %21
  %30 = load i64, ptr %5, align 8
  ret i64 %30
}