; Function Attrs: nounwind uwtable
define dso_local i64 @SPI_getbinval(ptr noundef %0, ptr noundef %1, i32 noundef %2, ptr noundef %3) local_unnamed_addr #0 {
  store i32 0, ptr @SPI_result, align 4
  %5 = load i32, ptr %1, align 8
  %6 = icmp sgt i32 %2, %5
  %7 = icmp eq i32 %2, 0
  %or.cond = or i1 %7, %6
  %8 = icmp slt i32 %2, -6
  %or.cond3 = or i1 %8, %or.cond
  br i1 %or.cond3, label %9, label %10

9:                                                ; preds = %4
  store i32 -9, ptr @SPI_result, align 4
  store i8 1, ptr %3, align 1
  br label %12

10:                                               ; preds = %4
  %11 = tail call fastcc i64 @heap_getattr(ptr noundef %0, i32 noundef %2, ptr noundef nonnull %1, ptr noundef %3)
  br label %12

12:                                               ; preds = %10, %9
  %.0 = phi i64 [ 0, %9 ], [ %11, %10 ]
  ret i64 %.0
}